; Function Attrs: mustprogress nofree norecurse nosync nounwind willreturn memory(none) uwtable
define hidden noundef range(i32 0, 2) i32 @_ZN19OpenColorIO_v2_5dev7LogUtil15GetLogDirectionENS0_8LogStyleE(i32 noundef %0) local_unnamed_addr #8 {
  %switch.tableidx = add i32 %0, -2
  %2 = icmp ult i32 %switch.tableidx, 5
  br i1 %2, label %switch.lookup, label %4

switch.lookup:                                    ; preds = %1
  %3 = zext nneg i32 %switch.tableidx to i64
  %switch.gep = getelementptr inbounds nuw [5 x i32], ptr @switch.table._ZN19OpenColorIO_v2_5dev7LogUtil15GetLogDirectionENS0_8LogStyleE, i64 0, i64 %3
  %switch.load = load i32, ptr %switch.gep, align 4
  br label %4

4:                                                ; preds = %switch.lookup, %1
  %.0 = phi i32 [ 0, %1 ], [ %switch.load, %switch.lookup ]
  ret i32 %.0
}